target datalayout = "e-m:e-p270:32:32-p271:32:32-p272:64:64-i64:64-i128:128-f80:128-n8:16:32:64-S128"
target triple = "x86_64-pc-linux-gnu"

%class.ErrorHandler = type <{ i32, i32, i8, i8, i8, i8, i8, i8, [2 x i8] }>
%class.RawRead = type { %class.Array, ptr, i64, i64, ptr }
%class.Array = type { ptr, i64, i64, i64 }

@ErrHandler = external global %class.ErrorHandler, align 4

; Function Attrs: inlinehint mustprogress nounwind uwtable
define linkonce_odr noundef nonnull align 1 dereferenceable(1) ptr @_ZNK5ArrayIhEixEm(ptr noundef nonnull align 8 dereferenceable(32) %0, i64 noundef %1) #3 comdat align 2 {
  %3 = alloca ptr, align 8
  %4 = alloca i64, align 8
  store ptr %0, ptr %3, align 8, !tbaa !15
  store i64 %1, ptr %4, align 8, !tbaa !23
  %5 = load ptr, ptr %3, align 8
  %6 = getelementptr inbounds nuw %class.Array, ptr %5, i32 0, i32 0
  %7 = load ptr, ptr %6, align 8, !tbaa !20
  %8 = load i64, ptr %4, align 8, !tbaa !23
  %9 = getelementptr inbounds nuw i8, ptr %7, i64 %8
  ret ptr %9
}

; Function Attrs: mustprogress uwtable
define linkonce_odr void @_ZN5ArrayIhE3AddEm(ptr noundef nonnull align 8 dereferenceable(32) %0, i64 noundef %1) #0 comdat align 2 {
  %3 = alloca ptr, align 8
  %4 = alloca i64, align 8
  %5 = alloca i64, align 8
  %6 = alloca i64, align 8
  %7 = alloca ptr, align 8
  store ptr %0, ptr %3, align 8, !tbaa !15
  store i64 %1, ptr %4, align 8, !tbaa !23
  %8 = load ptr, ptr %3, align 8
  %9 = load i64, ptr %4, align 8, !tbaa !23
  %10 = getelementptr inbounds nuw %class.Array, ptr %8, i32 0, i32 1
  %11 = load i64, ptr %10, align 8, !tbaa !22
  %12 = add i64 %11, %9
  store i64 %12, ptr %10, align 8, !tbaa !22
  %13 = getelementptr inbounds nuw %class.Array, ptr %8, i32 0, i32 1
  %14 = load i64, ptr %13, align 8, !tbaa !22
  %15 = getelementptr inbounds nuw %class.Array, ptr %8, i32 0, i32 2
  %16 = load i64, ptr %15, align 8, !tbaa !26
  %17 = icmp ugt i64 %14, %16
  br i1 %17, label %18, label %63

18:                                               ; preds = %2
  %19 = getelementptr inbounds nuw %class.Array, ptr %8, i32 0, i32 3
  %20 = load i64, ptr %19, align 8, !tbaa !27
  %21 = icmp ne i64 %20, 0
  br i1 %21, label %22, label %31

22:                                               ; preds = %18
  %23 = getelementptr inbounds nuw %class.Array, ptr %8, i32 0, i32 1
  %24 = load i64, ptr %23, align 8, !tbaa !22
  %25 = getelementptr inbounds nuw %class.Array, ptr %8, i32 0, i32 3
  %26 = load i64, ptr %25, align 8, !tbaa !27
  %27 = icmp ugt i64 %24, %26
  br i1 %27, label %28, label %31

28:                                               ; preds = %22
  %29 = getelementptr inbounds nuw %class.Array, ptr %8, i32 0, i32 3
  %30 = load i64, ptr %29, align 8, !tbaa !27
  call void (ptr, ptr, ...) @_ZN12ErrorHandler13GeneralErrMsgEPKwz(ptr noundef nonnull align 4 dereferenceable(14) @ErrHandler, ptr noundef @.str, i64 noundef %30)
  call void @_ZN12ErrorHandler11MemoryErrorEv(ptr noundef nonnull align 4 dereferenceable(14) @ErrHandler)
  br label %31

31:                                               ; preds = %28, %22, %18
  call void @llvm.lifetime.start.p0(i64 8, ptr %5) #9
  %32 = getelementptr inbounds nuw %class.Array, ptr %8, i32 0, i32 2
  %33 = load i64, ptr %32, align 8, !tbaa !26
  %34 = getelementptr inbounds nuw %class.Array, ptr %8, i32 0, i32 2
  %35 = load i64, ptr %34, align 8, !tbaa !26
  %36 = udiv i64 %35, 4
  %37 = add i64 %33, %36
  %38 = add i64 %37, 32
  store i64 %38, ptr %5, align 8, !tbaa !23
  call void @llvm.lifetime.start.p0(i64 8, ptr %6) #9
  %39 = getelementptr inbounds nuw %class.Array, ptr %8, i32 0, i32 1
  %40 = load i64, ptr %39, align 8, !tbaa !22
  %41 = load i64, ptr %5, align 8, !tbaa !23
  %42 = icmp ugt i64 %40, %41
  br i1 %42, label %43, label %46

43:                                               ; preds = %31
  %44 = getelementptr inbounds nuw %class.Array, ptr %8, i32 0, i32 1
  %45 = load i64, ptr %44, align 8, !tbaa !22
  br label %48

46:                                               ; preds = %31
  %47 = load i64, ptr %5, align 8, !tbaa !23
  br label %48

48:                                               ; preds = %46, %43
  %49 = phi i64 [ %45, %43 ], [ %47, %46 ]
  store i64 %49, ptr %6, align 8, !tbaa !23
  call void @llvm.lifetime.start.p0(i64 8, ptr %7) #9
  %50 = getelementptr inbounds nuw %class.Array, ptr %8, i32 0, i32 0
  %51 = load ptr, ptr %50, align 8, !tbaa !20
  %52 = load i64, ptr %6, align 8, !tbaa !23
  %53 = mul i64 %52, 1
  %54 = call ptr @realloc(ptr noundef %51, i64 noundef %53) #10
  store ptr %54, ptr %7, align 8, !tbaa !28
  %55 = load ptr, ptr %7, align 8, !tbaa !28
  %56 = icmp eq ptr %55, null
  br i1 %56, label %57, label %58

57:                                               ; preds = %48
  call void @_ZN12ErrorHandler11MemoryErrorEv(ptr noundef nonnull align 4 dereferenceable(14) @ErrHandler)
  br label %58

58:                                               ; preds = %57, %48
  %59 = load ptr, ptr %7, align 8, !tbaa !28
  %60 = getelementptr inbounds nuw %class.Array, ptr %8, i32 0, i32 0
  store ptr %59, ptr %60, align 8, !tbaa !20
  %61 = load i64, ptr %6, align 8, !tbaa !23
  %62 = getelementptr inbounds nuw %class.Array, ptr %8, i32 0, i32 2
  store i64 %61, ptr %62, align 8, !tbaa !26
  call void @llvm.lifetime.end.p0(i64 8, ptr %7) #9
  call void @llvm.lifetime.end.p0(i64 8, ptr %6) #9
  call void @llvm.lifetime.end.p0(i64 8, ptr %5) #9
  br label %63

63:                                               ; preds = %58, %2
  ret void
}

; Function Attrs: mustprogress uwtable
define void @_ZN7RawRead4ReadEPhm(ptr noundef nonnull align 8 dereferenceable(64) %0, ptr noundef %1, i64 noundef %2) #0 align 2 {
  %4 = alloca ptr, align 8
  %5 = alloca ptr, align 8
  %6 = alloca i64, align 8
  store ptr %0, ptr %4, align 8, !tbaa !3
  store ptr %1, ptr %5, align 8, !tbaa !28
  store i64 %2, ptr %6, align 8, !tbaa !23
  %7 = load ptr, ptr %4, align 8
  %8 = load i64, ptr %6, align 8, !tbaa !23
  %9 = icmp ne i64 %8, 0
  br i1 %9, label %10, label %23

10:                                               ; preds = %3
  %11 = getelementptr inbounds nuw %class.RawRead, ptr %7, i32 0, i32 0
  %12 = load i64, ptr %6, align 8, !tbaa !23
  call void @_ZN5ArrayIhE3AddEm(ptr noundef nonnull align 8 dereferenceable(32) %11, i64 noundef %12)
  %13 = getelementptr inbounds nuw %class.RawRead, ptr %7, i32 0, i32 0
  %14 = getelementptr inbounds nuw %class.RawRead, ptr %7, i32 0, i32 2
  %15 = load i64, ptr %14, align 8, !tbaa !18
  %16 = call noundef nonnull align 1 dereferenceable(1) ptr @_ZNK5ArrayIhEixEm(ptr noundef nonnull align 8 dereferenceable(32) %13, i64 noundef %15)
  %17 = load ptr, ptr %5, align 8, !tbaa !28
  %18 = load i64, ptr %6, align 8, !tbaa !23
  call void @llvm.memcpy.p0.p0.i64(ptr align 1 %16, ptr align 1 %17, i64 %18, i1 false)
  %19 = load i64, ptr %6, align 8, !tbaa !23
  %20 = getelementptr inbounds nuw %class.RawRead, ptr %7, i32 0, i32 2
  %21 = load i64, ptr %20, align 8, !tbaa !18
  %22 = add i64 %21, %19
  store i64 %22, ptr %20, align 8, !tbaa !18
  br label %23

23:                                               ; preds = %10, %3
  ret void
}