; Function Attrs: mustprogress uwtable
define void @_ZN7RawRead4ReadEPhm(ptr noundef nonnull align 8 captures(none) dereferenceable(64) %0, ptr noundef readonly captures(none) %1, i64 noundef %2) local_unnamed_addr #1 align 2 {
  %.not = icmp eq i64 %2, 0
  br i1 %.not, label %33, label %4

4:                                                ; preds = %3
  %5 = getelementptr inbounds nuw i8, ptr %0, i64 8
  %6 = load i64, ptr %5, align 8, !tbaa !3
  %7 = add i64 %6, %2
  store i64 %7, ptr %5, align 8, !tbaa !3
  %8 = getelementptr inbounds nuw i8, ptr %0, i64 16
  %9 = load i64, ptr %8, align 8, !tbaa !16
  %10 = icmp ugt i64 %7, %9
  br i1 %10, label %11, label %._ZN5ArrayIhE3AddEm.exit_crit_edge

._ZN5ArrayIhE3AddEm.exit_crit_edge:               ; preds = %4
  %.pre = load ptr, ptr %0, align 8, !tbaa !17
  br label %_ZN5ArrayIhE3AddEm.exit

11:                                               ; preds = %4
  %12 = getelementptr inbounds nuw i8, ptr %0, i64 24
  %13 = load i64, ptr %12, align 8, !tbaa !18
  %.not.i = icmp ne i64 %13, 0
  %14 = icmp ugt i64 %7, %13
  %or.cond.i = and i1 %.not.i, %14
  br i1 %or.cond.i, label %15, label %16

15:                                               ; preds = %11
  tail call void (ptr, ptr, ...) @_ZN12ErrorHandler13GeneralErrMsgEPKwz(ptr noundef nonnull align 4 dereferenceable(14) @ErrHandler, ptr noundef nonnull @.str, i64 noundef %13)
  tail call void @_ZN12ErrorHandler11MemoryErrorEv(ptr noundef nonnull align 4 dereferenceable(14) @ErrHandler)
  %.pre.i = load i64, ptr %8, align 8, !tbaa !16
  %.pre10.i = load i64, ptr %5, align 8, !tbaa !3
  br label %16

16:                                               ; preds = %15, %11
  %17 = phi i64 [ %.pre10.i, %15 ], [ %7, %11 ]
  %18 = phi i64 [ %.pre.i, %15 ], [ %9, %11 ]
  %19 = lshr i64 %18, 2
  %20 = add i64 %18, 32
  %21 = add i64 %20, %19
  %..i = tail call i64 @llvm.umax.i64(i64 %17, i64 %21)
  %22 = load ptr, ptr %0, align 8, !tbaa !17
  %23 = tail call ptr @realloc(ptr noundef %22, i64 noundef %..i) #12
  %24 = icmp eq ptr %23, null
  br i1 %24, label %25, label %26

25:                                               ; preds = %16
  tail call void @_ZN12ErrorHandler11MemoryErrorEv(ptr noundef nonnull align 4 dereferenceable(14) @ErrHandler)
  br label %26

26:                                               ; preds = %25, %16
  store ptr %23, ptr %0, align 8, !tbaa !17
  store i64 %..i, ptr %8, align 8, !tbaa !16
  br label %_ZN5ArrayIhE3AddEm.exit

_ZN5ArrayIhE3AddEm.exit:                          ; preds = %._ZN5ArrayIhE3AddEm.exit_crit_edge, %26
  %27 = phi ptr [ %.pre, %._ZN5ArrayIhE3AddEm.exit_crit_edge ], [ %23, %26 ]
  %28 = getelementptr inbounds nuw i8, ptr %0, i64 40
  %29 = load i64, ptr %28, align 8, !tbaa !15
  %30 = getelementptr inbounds nuw i8, ptr %27, i64 %29
  tail call void @llvm.memcpy.p0.p0.i64(ptr nonnull align 1 %30, ptr align 1 %1, i64 %2, i1 false)
  %31 = load i64, ptr %28, align 8, !tbaa !15
  %32 = add i64 %31, %2
  store i64 %32, ptr %28, align 8, !tbaa !15
  br label %33

33:                                               ; preds = %_ZN5ArrayIhE3AddEm.exit, %3
  ret void
}